target datalayout = "e-m:e-p270:32:32-p271:32:32-p272:64:64-i64:64-i128:128-f80:128-n8:16:32:64-S128"
target triple = "x86_64-pc-linux-gnu"

%struct.ec_key_st = type { ptr, ptr, i32, ptr, ptr, ptr, i32, i32, %struct.CRYPTO_REF_COUNT, i32, %struct.crypto_ex_data_st, ptr, ptr, i64 }
%struct.CRYPTO_REF_COUNT = type { i32 }
%struct.crypto_ex_data_st = type { ptr, ptr }
%struct.ec_key_method_st = type { ptr, i32, ptr, ptr, ptr, ptr, ptr, ptr, ptr, ptr, ptr, ptr, ptr, ptr, ptr }

@default_ec_key_meth = internal global ptr @openssl_ec_key_method, align 8
@.str = private unnamed_addr constant [32 x i8] c"../openssl/crypto/ec/ec_kmeth.c\00", align 1
@__func__.ossl_ec_key_new_method_int = private unnamed_addr constant [27 x i8] c"ossl_ec_key_new_method_int\00", align 1

; Function Attrs: nounwind uwtable
define ptr @EC_KEY_get_default_method() #0 {
  %1 = load ptr, ptr @default_ec_key_meth, align 8, !tbaa !3
  ret ptr %1
}

; Function Attrs: inlinehint nounwind uwtable
define internal i32 @CRYPTO_NEW_REF(ptr noundef %0, i32 noundef %1) #3 {
  %3 = alloca ptr, align 8
  %4 = alloca i32, align 4
  store ptr %0, ptr %3, align 8, !tbaa !25
  store i32 %1, ptr %4, align 4, !tbaa !35
  %5 = load i32, ptr %4, align 4, !tbaa !35
  %6 = load ptr, ptr %3, align 8, !tbaa !25
  %7 = getelementptr inbounds nuw %struct.CRYPTO_REF_COUNT, ptr %6, i32 0, i32 0
  store atomic i32 %5, ptr %7 seq_cst, align 4, !tbaa !36
  ret i32 1
}

; Function Attrs: nounwind uwtable
define ptr @ossl_ec_key_new_method_int(ptr noundef %0, ptr noundef %1, ptr noundef %2) #0 {
  %4 = alloca ptr, align 8
  %5 = alloca ptr, align 8
  %6 = alloca ptr, align 8
  %7 = alloca ptr, align 8
  %8 = alloca ptr, align 8
  %9 = alloca i32, align 4
  store ptr %0, ptr %5, align 8, !tbaa !28
  store ptr %1, ptr %6, align 8, !tbaa !29
  store ptr %2, ptr %7, align 8, !tbaa !30
  call void @llvm.lifetime.start.p0(i64 8, ptr %8) #5
  %10 = call noalias ptr @CRYPTO_zalloc(i64 noundef 104, ptr noundef @.str, i32 noundef 84)
  store ptr %10, ptr %8, align 8, !tbaa !8
  %11 = load ptr, ptr %8, align 8, !tbaa !8
  %12 = icmp eq ptr %11, null
  br i1 %12, label %13, label %14

13:                                               ; preds = %3
  store ptr null, ptr %4, align 8
  store i32 1, ptr %9, align 4
  br label %107

14:                                               ; preds = %3
  %15 = load ptr, ptr %8, align 8, !tbaa !8
  %16 = getelementptr inbounds nuw %struct.ec_key_st, ptr %15, i32 0, i32 8
  %17 = call i32 @CRYPTO_NEW_REF(ptr noundef %16, i32 noundef 1)
  %18 = icmp ne i32 %17, 0
  br i1 %18, label %21, label %19

19:                                               ; preds = %14
  %20 = load ptr, ptr %8, align 8, !tbaa !8
  call void @CRYPTO_free(ptr noundef %20, ptr noundef @.str, i32 noundef 90)
  store ptr null, ptr %4, align 8
  store i32 1, ptr %9, align 4
  br label %107

21:                                               ; preds = %14
  %22 = load ptr, ptr %5, align 8, !tbaa !28
  %23 = load ptr, ptr %8, align 8, !tbaa !8
  %24 = getelementptr inbounds nuw %struct.ec_key_st, ptr %23, i32 0, i32 11
  store ptr %22, ptr %24, align 8, !tbaa !31
  %25 = load ptr, ptr %6, align 8, !tbaa !29
  %26 = icmp ne ptr %25, null
  br i1 %26, label %27, label %38

27:                                               ; preds = %21
  %28 = load ptr, ptr %6, align 8, !tbaa !29
  %29 = call noalias ptr @CRYPTO_strdup(ptr noundef %28, ptr noundef @.str, i32 noundef 96)
  %30 = load ptr, ptr %8, align 8, !tbaa !8
  %31 = getelementptr inbounds nuw %struct.ec_key_st, ptr %30, i32 0, i32 12
  store ptr %29, ptr %31, align 8, !tbaa !32
  %32 = load ptr, ptr %8, align 8, !tbaa !8
  %33 = getelementptr inbounds nuw %struct.ec_key_st, ptr %32, i32 0, i32 12
  %34 = load ptr, ptr %33, align 8, !tbaa !32
  %35 = icmp eq ptr %34, null
  br i1 %35, label %36, label %37

36:                                               ; preds = %27
  br label %105

37:                                               ; preds = %27
  br label %38

38:                                               ; preds = %37, %21
  %39 = call ptr @EC_KEY_get_default_method()
  %40 = load ptr, ptr %8, align 8, !tbaa !8
  %41 = getelementptr inbounds nuw %struct.ec_key_st, ptr %40, i32 0, i32 0
  store ptr %39, ptr %41, align 8, !tbaa !10
  %42 = load ptr, ptr %7, align 8, !tbaa !30
  %43 = icmp ne ptr %42, null
  br i1 %43, label %44, label %53

44:                                               ; preds = %38
  %45 = load ptr, ptr %7, align 8, !tbaa !30
  %46 = call i32 @ENGINE_init(ptr noundef %45)
  %47 = icmp ne i32 %46, 0
  br i1 %47, label %49, label %48

48:                                               ; preds = %44
  call void @ERR_new()
  call void @ERR_set_debug(ptr noundef @.str, i32 noundef 105, ptr noundef @__func__.ossl_ec_key_new_method_int)
  call void (i32, i32, ptr, ...) @ERR_set_error(i32 noundef 16, i32 noundef 524326, ptr noundef null)
  br label %105

49:                                               ; preds = %44
  %50 = load ptr, ptr %7, align 8, !tbaa !30
  %51 = load ptr, ptr %8, align 8, !tbaa !8
  %52 = getelementptr inbounds nuw %struct.ec_key_st, ptr %51, i32 0, i32 1
  store ptr %50, ptr %52, align 8, !tbaa !26
  br label %57

53:                                               ; preds = %38
  %54 = call ptr @ENGINE_get_default_EC()
  %55 = load ptr, ptr %8, align 8, !tbaa !8
  %56 = getelementptr inbounds nuw %struct.ec_key_st, ptr %55, i32 0, i32 1
  store ptr %54, ptr %56, align 8, !tbaa !26
  br label %57

57:                                               ; preds = %53, %49
  %58 = load ptr, ptr %8, align 8, !tbaa !8
  %59 = getelementptr inbounds nuw %struct.ec_key_st, ptr %58, i32 0, i32 1
  %60 = load ptr, ptr %59, align 8, !tbaa !26
  %61 = icmp ne ptr %60, null
  br i1 %61, label %62, label %75

62:                                               ; preds = %57
  %63 = load ptr, ptr %8, align 8, !tbaa !8
  %64 = getelementptr inbounds nuw %struct.ec_key_st, ptr %63, i32 0, i32 1
  %65 = load ptr, ptr %64, align 8, !tbaa !26
  %66 = call ptr @ENGINE_get_EC(ptr noundef %65)
  %67 = load ptr, ptr %8, align 8, !tbaa !8
  %68 = getelementptr inbounds nuw %struct.ec_key_st, ptr %67, i32 0, i32 0
  store ptr %66, ptr %68, align 8, !tbaa !10
  %69 = load ptr, ptr %8, align 8, !tbaa !8
  %70 = getelementptr inbounds nuw %struct.ec_key_st, ptr %69, i32 0, i32 0
  %71 = load ptr, ptr %70, align 8, !tbaa !10
  %72 = icmp eq ptr %71, null
  br i1 %72, label %73, label %74

73:                                               ; preds = %62
  call void @ERR_new()
  call void @ERR_set_debug(ptr noundef @.str, i32 noundef 114, ptr noundef @__func__.ossl_ec_key_new_method_int)
  call void (i32, i32, ptr, ...) @ERR_set_error(i32 noundef 16, i32 noundef 524326, ptr noundef null)
  br label %105

74:                                               ; preds = %62
  br label %75

75:                                               ; preds = %74, %57
  %76 = load ptr, ptr %8, align 8, !tbaa !8
  %77 = getelementptr inbounds nuw %struct.ec_key_st, ptr %76, i32 0, i32 2
  store i32 1, ptr %77, align 8, !tbaa !33
  %78 = load ptr, ptr %8, align 8, !tbaa !8
  %79 = getelementptr inbounds nuw %struct.ec_key_st, ptr %78, i32 0, i32 7
  store i32 4, ptr %79, align 4, !tbaa !34
  %80 = load ptr, ptr %8, align 8, !tbaa !8
  %81 = load ptr, ptr %8, align 8, !tbaa !8
  %82 = getelementptr inbounds nuw %struct.ec_key_st, ptr %81, i32 0, i32 10
  %83 = call i32 @CRYPTO_new_ex_data(i32 noundef 8, ptr noundef %80, ptr noundef %82)
  %84 = icmp ne i32 %83, 0
  br i1 %84, label %86, label %85

85:                                               ; preds = %75
  call void @ERR_new()
  call void @ERR_set_debug(ptr noundef @.str, i32 noundef 126, ptr noundef @__func__.ossl_ec_key_new_method_int)
  call void (i32, i32, ptr, ...) @ERR_set_error(i32 noundef 16, i32 noundef 524303, ptr noundef null)
  br label %105

86:                                               ; preds = %75
  %87 = load ptr, ptr %8, align 8, !tbaa !8
  %88 = getelementptr inbounds nuw %struct.ec_key_st, ptr %87, i32 0, i32 0
  %89 = load ptr, ptr %88, align 8, !tbaa !10
  %90 = getelementptr inbounds nuw %struct.ec_key_method_st, ptr %89, i32 0, i32 2
  %91 = load ptr, ptr %90, align 8, !tbaa !27
  %92 = icmp ne ptr %91, null
  br i1 %92, label %93, label %103

93:                                               ; preds = %86
  %94 = load ptr, ptr %8, align 8, !tbaa !8
  %95 = getelementptr inbounds nuw %struct.ec_key_st, ptr %94, i32 0, i32 0
  %96 = load ptr, ptr %95, align 8, !tbaa !10
  %97 = getelementptr inbounds nuw %struct.ec_key_method_st, ptr %96, i32 0, i32 2
  %98 = load ptr, ptr %97, align 8, !tbaa !27
  %99 = load ptr, ptr %8, align 8, !tbaa !8
  %100 = call i32 %98(ptr noundef %99)
  %101 = icmp eq i32 %100, 0
  br i1 %101, label %102, label %103

102:                                              ; preds = %93
  call void @ERR_new()
  call void @ERR_set_debug(ptr noundef @.str, i32 noundef 132, ptr noundef @__func__.ossl_ec_key_new_method_int)
  call void (i32, i32, ptr, ...) @ERR_set_error(i32 noundef 16, i32 noundef 786693, ptr noundef null)
  br label %105

103:                                              ; preds = %93, %86
  %104 = load ptr, ptr %8, align 8, !tbaa !8
  store ptr %104, ptr %4, align 8
  store i32 1, ptr %9, align 4
  br label %107

105:                                              ; preds = %102, %85, %73, %48, %36
  %106 = load ptr, ptr %8, align 8, !tbaa !8
  call void @EC_KEY_free(ptr noundef %106)
  store ptr null, ptr %4, align 8
  store i32 1, ptr %9, align 4
  br label %107

107:                                              ; preds = %105, %103, %19, %13
  call void @llvm.lifetime.end.p0(i64 8, ptr %8) #5
  %108 = load ptr, ptr %4, align 8
  ret ptr %108
}