; Function Attrs: nounwind uwtable
define ptr @ossl_ec_key_new_method_int(ptr noundef %0, ptr noundef %1, ptr noundef %2) local_unnamed_addr #4 {
  %4 = tail call noalias ptr @CRYPTO_zalloc(i64 noundef 104, ptr noundef nonnull @.str, i32 noundef 84) #10
  %5 = icmp eq ptr %4, null
  br i1 %5, label %38, label %6

6:                                                ; preds = %3
  %7 = getelementptr inbounds nuw i8, ptr %4, i64 56
  store atomic i32 1, ptr %7 seq_cst, align 4, !tbaa !25
  %8 = getelementptr inbounds nuw i8, ptr %4, i64 80
  store ptr %0, ptr %8, align 8, !tbaa !26
  %.not = icmp eq ptr %1, null
  br i1 %.not, label %13, label %9

9:                                                ; preds = %6
  %10 = tail call noalias ptr @CRYPTO_strdup(ptr noundef nonnull %1, ptr noundef nonnull @.str, i32 noundef 96) #10
  %11 = getelementptr inbounds nuw i8, ptr %4, i64 88
  store ptr %10, ptr %11, align 8, !tbaa !27
  %12 = icmp eq ptr %10, null
  br i1 %12, label %37, label %13

13:                                               ; preds = %9, %6
  %14 = load ptr, ptr @default_ec_key_meth, align 8, !tbaa !3
  store ptr %14, ptr %4, align 8, !tbaa !8
  %.not34 = icmp eq ptr %2, null
  br i1 %.not34, label %18, label %15

15:                                               ; preds = %13
  %16 = tail call i32 @ENGINE_init(ptr noundef nonnull %2) #10
  %.not35 = icmp eq i32 %16, 0
  br i1 %.not35, label %.sink.split, label %.thread

.thread:                                          ; preds = %15
  %17 = getelementptr inbounds nuw i8, ptr %4, i64 8
  store ptr %2, ptr %17, align 8, !tbaa !23
  br label %21

18:                                               ; preds = %13
  %19 = tail call ptr @ENGINE_get_default_EC() #10
  %20 = getelementptr inbounds nuw i8, ptr %4, i64 8
  store ptr %19, ptr %20, align 8, !tbaa !23
  %.not36 = icmp eq ptr %19, null
  br i1 %.not36, label %25, label %21

21:                                               ; preds = %.thread, %18
  %22 = phi ptr [ %2, %.thread ], [ %19, %18 ]
  %23 = tail call ptr @ENGINE_get_EC(ptr noundef nonnull %22) #10
  store ptr %23, ptr %4, align 8, !tbaa !8
  %24 = icmp eq ptr %23, null
  br i1 %24, label %.sink.split, label %25

25:                                               ; preds = %21, %18
  %26 = getelementptr inbounds nuw i8, ptr %4, i64 16
  store i32 1, ptr %26, align 8, !tbaa !28
  %27 = getelementptr inbounds nuw i8, ptr %4, i64 52
  store i32 4, ptr %27, align 4, !tbaa !29
  %28 = getelementptr inbounds nuw i8, ptr %4, i64 64
  %29 = tail call i32 @CRYPTO_new_ex_data(i32 noundef 8, ptr noundef nonnull %4, ptr noundef nonnull %28) #10
  %.not37 = icmp eq i32 %29, 0
  br i1 %.not37, label %.sink.split, label %30

30:                                               ; preds = %25
  %31 = load ptr, ptr %4, align 8, !tbaa !8
  %32 = getelementptr inbounds nuw i8, ptr %31, i64 16
  %33 = load ptr, ptr %32, align 8, !tbaa !24
  %.not38 = icmp eq ptr %33, null
  br i1 %.not38, label %38, label %34

34:                                               ; preds = %30
  %35 = tail call i32 %33(ptr noundef nonnull %4) #10
  %36 = icmp eq i32 %35, 0
  br i1 %36, label %.sink.split, label %38

.sink.split:                                      ; preds = %34, %25, %21, %15
  %.sink40 = phi i32 [ 105, %15 ], [ 114, %21 ], [ 126, %25 ], [ 132, %34 ]
  %.sink = phi i32 [ 524326, %15 ], [ 524326, %21 ], [ 524303, %25 ], [ 786693, %34 ]
  tail call void @ERR_new() #10
  tail call void @ERR_set_debug(ptr noundef nonnull @.str, i32 noundef %.sink40, ptr noundef nonnull @__func__.ossl_ec_key_new_method_int) #10
  tail call void (i32, i32, ptr, ...) @ERR_set_error(i32 noundef 16, i32 noundef %.sink, ptr noundef null) #10
  br label %37

37:                                               ; preds = %.sink.split, %9
  tail call void @EC_KEY_free(ptr noundef nonnull %4) #10
  br label %38

38:                                               ; preds = %30, %34, %3, %37
  %.0 = phi ptr [ null, %37 ], [ null, %3 ], [ %4, %34 ], [ %4, %30 ]
  ret ptr %.0
}